target datalayout = "e-m:e-p270:32:32-p271:32:32-p272:64:64-i64:64-i128:128-f80:128-n8:16:32:64-S128"
target triple = "x86_64-pc-linux-gnu"

%struct.nstime_t = type { i64, i32 }
%struct.mac_lte_info = type { i8, i8, i8, i16, i16, i16, i16, i8, i8, i16, i8, i16, i8, i8, i8, i8, i8, i8, i32, i32, i32, i32, i32, i8, %union.anon, i32, i8, i8, i16, [20 x i16], [20 x i16] }
%union.anon = type { %struct.mac_lte_dl_phy_info }
%struct.mac_lte_dl_phy_info = type { i8, i8, i8, i8, i8, i8, i8, i8, i8, i8 }
%struct._packet_info = type { ptr, ptr, i32, i32, %struct.nstime_t, %struct.nstime_t, %struct.nstime_t, i8, ptr, ptr, ptr, ptr, %struct._address, %struct._address, %struct._address, %struct._address, %struct._address, %struct._address, i32, ptr, i8, [3 x i8], %struct.anon, i32, i32, i32, i32, ptr, i8, ptr, ptr, i16, i16, i32, i32, i16, i32, i32, ptr, ptr, ptr, i8, i8, i16, i16, i16, i32, i16, i16, ptr, ptr, ptr, ptr, ptr, i32, i32 }
%struct._address = type { i32, i32, ptr, ptr }
%struct.anon = type { i8, [3 x i8] }
%struct.DLHARQResult = type { i8, i8, i32, i32, i32, i32 }

@proto_mac_lte = hidden global i32 0, align 4
@mac_lte_dl_harq_result_hash = internal global ptr null, align 8

; Function Attrs: null_pointer_is_valid sspstrong uwtable
define hidden zeroext i1 @is_mac_lte_frame_retx(ptr noundef %0, i8 noundef zeroext %1) #0 {
  %3 = alloca i1, align 1
  %4 = alloca ptr, align 8
  %5 = alloca i8, align 1
  %6 = alloca ptr, align 8
  %7 = alloca i32, align 4
  %8 = alloca ptr, align 8
  store ptr %0, ptr %4, align 8
  store i8 %1, ptr %5, align 1
  call void @llvm.lifetime.start.p0(i64 8, ptr %6) #16
  %9 = call ptr @wmem_file_scope()
  %10 = load ptr, ptr %4, align 8
  %11 = load i32, ptr @proto_mac_lte, align 4
  %12 = call ptr @p_get_proto_data(ptr noundef %9, ptr noundef %10, i32 noundef %11, i32 noundef 0)
  store ptr %12, ptr %6, align 8
  %13 = load ptr, ptr %6, align 8
  %14 = icmp eq ptr %13, null
  br i1 %14, label %15, label %16

15:                                               ; preds = %2
  store i1 false, ptr %3, align 1
  store i32 1, ptr %7, align 4
  br label %49

16:                                               ; preds = %2
  %17 = load i8, ptr %5, align 1
  %18 = zext i8 %17 to i32
  %19 = icmp eq i32 %18, 0
  br i1 %19, label %20, label %26

20:                                               ; preds = %16
  %21 = load ptr, ptr %6, align 8
  %22 = getelementptr inbounds nuw %struct.mac_lte_info, ptr %21, i32 0, i32 12
  %23 = load i8, ptr %22, align 4
  %24 = zext i8 %23 to i32
  %25 = icmp sgt i32 %24, 0
  store i1 %25, ptr %3, align 1
  store i32 1, ptr %7, align 4
  br label %49

26:                                               ; preds = %16
  %27 = load ptr, ptr %6, align 8
  %28 = getelementptr inbounds nuw %struct.mac_lte_info, ptr %27, i32 0, i32 20
  %29 = load i32, ptr %28, align 4
  %30 = icmp eq i32 %29, 1
  br i1 %30, label %31, label %32

31:                                               ; preds = %26
  store i1 true, ptr %3, align 1
  store i32 1, ptr %7, align 4
  br label %49

32:                                               ; preds = %26
  call void @llvm.lifetime.start.p0(i64 8, ptr %8) #16
  %33 = load ptr, ptr @mac_lte_dl_harq_result_hash, align 8
  %34 = load ptr, ptr %4, align 8
  %35 = getelementptr inbounds nuw %struct._packet_info, ptr %34, i32 0, i32 3
  %36 = load i32, ptr %35, align 4
  %37 = zext i32 %36 to i64
  %38 = inttoptr i64 %37 to ptr
  %39 = call ptr @g_hash_table_lookup(ptr noundef %33, ptr noundef %38)
  store ptr %39, ptr %8, align 8
  %40 = load ptr, ptr %8, align 8
  %41 = icmp ne ptr %40, null
  br i1 %41, label %42, label %47

42:                                               ; preds = %32
  %43 = load ptr, ptr %8, align 8
  %44 = getelementptr inbounds nuw %struct.DLHARQResult, ptr %43, i32 0, i32 0
  %45 = load i8, ptr %44, align 4, !range !9, !noundef !10
  %46 = trunc i8 %45 to i1
  br label %47

47:                                               ; preds = %42, %32
  %48 = phi i1 [ false, %32 ], [ %46, %42 ]
  store i1 %48, ptr %3, align 1
  store i32 1, ptr %7, align 4
  call void @llvm.lifetime.end.p0(i64 8, ptr %8) #16
  br label %49

49:                                               ; preds = %47, %31, %20, %15
  call void @llvm.lifetime.end.p0(i64 8, ptr %6) #16
  %50 = load i1, ptr %3, align 1
  ret i1 %50
}