; Function Attrs: null_pointer_is_valid sspstrong uwtable
define hidden zeroext i1 @is_mac_lte_frame_retx(ptr noundef %0, i8 noundef zeroext %1) local_unnamed_addr #0 {
  %3 = tail call ptr @wmem_file_scope()
  %4 = load i32, ptr @proto_mac_lte, align 4
  %5 = tail call ptr @p_get_proto_data(ptr noundef %3, ptr noundef %0, i32 noundef %4, i32 noundef 0)
  %6 = icmp eq ptr %5, null
  br i1 %6, label %27, label %7

7:                                                ; preds = %2
  %8 = icmp eq i8 %1, 0
  br i1 %8, label %9, label %13

9:                                                ; preds = %7
  %10 = getelementptr inbounds nuw i8, ptr %5, i64 20
  %11 = load i8, ptr %10, align 4
  %12 = icmp ne i8 %11, 0
  br label %27

13:                                               ; preds = %7
  %14 = getelementptr inbounds nuw i8, ptr %5, i64 36
  %15 = load i32, ptr %14, align 4
  %16 = icmp eq i32 %15, 1
  br i1 %16, label %27, label %17

17:                                               ; preds = %13
  %18 = load ptr, ptr @mac_lte_dl_harq_result_hash, align 8
  %19 = getelementptr inbounds nuw i8, ptr %0, i64 20
  %20 = load i32, ptr %19, align 4
  %21 = zext i32 %20 to i64
  %22 = inttoptr i64 %21 to ptr
  %23 = tail call ptr @g_hash_table_lookup(ptr noundef %18, ptr noundef %22)
  %.not = icmp eq ptr %23, null
  br i1 %.not, label %27, label %24

24:                                               ; preds = %17
  %25 = load i8, ptr %23, align 4, !range !9, !noundef !10
  %26 = trunc nuw i8 %25 to i1
  br label %27

27:                                               ; preds = %17, %24, %13, %2, %9
  %.0 = phi i1 [ %12, %9 ], [ false, %2 ], [ true, %13 ], [ false, %17 ], [ %26, %24 ]
  ret i1 %.0
}